target datalayout = "e-m:e-p270:32:32-p271:32:32-p272:64:64-i64:64-i128:128-f80:128-n8:16:32:64-S128"
target triple = "x86_64-pc-linux-gnu"

%struct.DES_ks = type { [16 x %union.anon] }
%union.anon = type { [2 x i32] }

@.str.24 = private unnamed_addr constant [26 x i8] c"../openssl/test/destest.c\00", align 1
@.str.25 = private unnamed_addr constant [4 x i8] c"out\00", align 1
@.str.27 = private unnamed_addr constant [31 x i8] c"Encryption error %2d k=%s p=%s\00", align 1
@.str.28 = private unnamed_addr constant [3 x i8] c"in\00", align 1
@.str.29 = private unnamed_addr constant [6 x i8] c"outin\00", align 1
@pt.f = internal global ptr @.str.31, align 8
@.str.42 = private unnamed_addr constant [15 x i8] c"cipher_ecb2[i]\00", align 1
@.str.43 = private unnamed_addr constant [32 x i8] c"Decryption error %2d k=%s p=%s \00", align 1

; Function Attrs: nounwind uwtable
define internal ptr @pt(ptr noundef %0, ptr noundef %1) #0 {
  %3 = alloca ptr, align 8
  %4 = alloca ptr, align 8
  %5 = alloca ptr, align 8
  %6 = alloca i32, align 4
  store ptr %0, ptr %3, align 8, !tbaa !22
  store ptr %1, ptr %4, align 8, !tbaa !22
  call void @llvm.lifetime.start.p0(i64 8, ptr %5) #6
  call void @llvm.lifetime.start.p0(i64 4, ptr %6) #6
  %7 = load ptr, ptr %4, align 8, !tbaa !22
  %8 = getelementptr inbounds i8, ptr %7, i64 0
  store ptr %8, ptr %5, align 8, !tbaa !22
  store i32 0, ptr %6, align 4, !tbaa !4
  br label %9

9:                                                ; preds = %47, %2
  %10 = load i32, ptr %6, align 4, !tbaa !4
  %11 = icmp slt i32 %10, 8
  br i1 %11, label %12, label %50

12:                                               ; preds = %9
  %13 = load ptr, ptr @pt.f, align 8, !tbaa !22
  %14 = load ptr, ptr %3, align 8, !tbaa !22
  %15 = load i32, ptr %6, align 4, !tbaa !4
  %16 = sext i32 %15 to i64
  %17 = getelementptr inbounds i8, ptr %14, i64 %16
  %18 = load i8, ptr %17, align 1, !tbaa !20
  %19 = zext i8 %18 to i32
  %20 = ashr i32 %19, 4
  %21 = and i32 %20, 15
  %22 = sext i32 %21 to i64
  %23 = getelementptr inbounds i8, ptr %13, i64 %22
  %24 = load i8, ptr %23, align 1, !tbaa !20
  %25 = load ptr, ptr %5, align 8, !tbaa !22
  %26 = load i32, ptr %6, align 4, !tbaa !4
  %27 = mul nsw i32 %26, 2
  %28 = sext i32 %27 to i64
  %29 = getelementptr inbounds i8, ptr %25, i64 %28
  store i8 %24, ptr %29, align 1, !tbaa !20
  %30 = load ptr, ptr @pt.f, align 8, !tbaa !22
  %31 = load ptr, ptr %3, align 8, !tbaa !22
  %32 = load i32, ptr %6, align 4, !tbaa !4
  %33 = sext i32 %32 to i64
  %34 = getelementptr inbounds i8, ptr %31, i64 %33
  %35 = load i8, ptr %34, align 1, !tbaa !20
  %36 = zext i8 %35 to i32
  %37 = and i32 %36, 15
  %38 = sext i32 %37 to i64
  %39 = getelementptr inbounds i8, ptr %30, i64 %38
  %40 = load i8, ptr %39, align 1, !tbaa !20
  %41 = load ptr, ptr %5, align 8, !tbaa !22
  %42 = load i32, ptr %6, align 4, !tbaa !4
  %43 = mul nsw i32 %42, 2
  %44 = add nsw i32 %43, 1
  %45 = sext i32 %44 to i64
  %46 = getelementptr inbounds i8, ptr %41, i64 %45
  store i8 %40, ptr %46, align 1, !tbaa !20
  br label %47

47:                                               ; preds = %12
  %48 = load i32, ptr %6, align 4, !tbaa !4
  %49 = add nsw i32 %48, 1
  store i32 %49, ptr %6, align 4, !tbaa !4
  br label %9, !llvm.loop !26

50:                                               ; preds = %9
  %51 = load ptr, ptr %5, align 8, !tbaa !22
  %52 = getelementptr inbounds i8, ptr %51, i64 16
  store i8 0, ptr %52, align 1, !tbaa !20
  %53 = load ptr, ptr %5, align 8, !tbaa !22
  call void @llvm.lifetime.end.p0(i64 4, ptr %6) #6
  call void @llvm.lifetime.end.p0(i64 8, ptr %5) #6
  ret ptr %53
}

; Function Attrs: nounwind uwtable
define internal i32 @test_des_ede_ecb(i32 noundef %0) #0 {
  %2 = alloca i32, align 4
  %3 = alloca i32, align 4
  %4 = alloca [8 x i8], align 1
  %5 = alloca [8 x i8], align 1
  %6 = alloca [8 x i8], align 1
  %7 = alloca %struct.DES_ks, align 4
  %8 = alloca %struct.DES_ks, align 4
  %9 = alloca %struct.DES_ks, align 4
  %10 = alloca [20 x i8], align 16
  %11 = alloca [20 x i8], align 16
  %12 = alloca i32, align 4
  store i32 %0, ptr %3, align 4, !tbaa !4
  call void @llvm.lifetime.start.p0(i64 8, ptr %4) #6
  call void @llvm.lifetime.start.p0(i64 8, ptr %5) #6
  call void @llvm.lifetime.start.p0(i64 8, ptr %6) #6
  call void @llvm.lifetime.start.p0(i64 128, ptr %7) #6
  call void @llvm.lifetime.start.p0(i64 128, ptr %8) #6
  call void @llvm.lifetime.start.p0(i64 128, ptr %9) #6
  call void @llvm.lifetime.start.p0(i64 20, ptr %10) #6
  call void @llvm.lifetime.start.p0(i64 20, ptr %11) #6
  %13 = load i32, ptr %3, align 4, !tbaa !4
  %14 = sext i32 %13 to i64
  %15 = getelementptr inbounds [34 x [8 x i8]], ptr @key_data, i64 0, i64 %14
  call void @DES_set_key_unchecked(ptr noundef %15, ptr noundef %7)
  %16 = load i32, ptr %3, align 4, !tbaa !4
  %17 = add nsw i32 %16, 1
  %18 = sext i32 %17 to i64
  %19 = getelementptr inbounds [34 x [8 x i8]], ptr @key_data, i64 0, i64 %18
  call void @DES_set_key_unchecked(ptr noundef %19, ptr noundef %8)
  %20 = load i32, ptr %3, align 4, !tbaa !4
  %21 = add nsw i32 %20, 2
  %22 = sext i32 %21 to i64
  %23 = getelementptr inbounds [34 x [8 x i8]], ptr @key_data, i64 0, i64 %22
  call void @DES_set_key_unchecked(ptr noundef %23, ptr noundef %9)
  %24 = getelementptr inbounds [8 x i8], ptr %4, i64 0, i64 0
  %25 = load i32, ptr %3, align 4, !tbaa !4
  %26 = sext i32 %25 to i64
  %27 = getelementptr inbounds [34 x [8 x i8]], ptr @plain_data, i64 0, i64 %26
  %28 = getelementptr inbounds [8 x i8], ptr %27, i64 0, i64 0
  call void @llvm.memcpy.p0.p0.i64(ptr align 1 %24, ptr align 8 %28, i64 8, i1 false)
  %29 = getelementptr inbounds [8 x i8], ptr %5, i64 0, i64 0
  call void @llvm.memset.p0.i64(ptr align 1 %29, i8 0, i64 8, i1 false)
  %30 = getelementptr inbounds [8 x i8], ptr %6, i64 0, i64 0
  call void @llvm.memset.p0.i64(ptr align 1 %30, i8 0, i64 8, i1 false)
  call void @DES_ecb3_encrypt(ptr noundef %4, ptr noundef %5, ptr noundef %7, ptr noundef %8, ptr noundef %7, i32 noundef 1)
  call void @DES_ecb3_encrypt(ptr noundef %5, ptr noundef %6, ptr noundef %7, ptr noundef %8, ptr noundef %7, i32 noundef 0)
  %31 = getelementptr inbounds [8 x i8], ptr %5, i64 0, i64 0
  %32 = load i32, ptr %3, align 4, !tbaa !4
  %33 = sext i32 %32 to i64
  %34 = getelementptr inbounds [33 x [8 x i8]], ptr @cipher_ecb2, i64 0, i64 %33
  %35 = getelementptr inbounds [8 x i8], ptr %34, i64 0, i64 0
  %36 = call i32 @test_mem_eq(ptr noundef @.str.24, i32 noundef 359, ptr noundef @.str.25, ptr noundef @.str.42, ptr noundef %31, i64 noundef 8, ptr noundef %35, i64 noundef 8)
  %37 = icmp ne i32 %36, 0
  br i1 %37, label %50, label %38

38:                                               ; preds = %1
  %39 = load i32, ptr %3, align 4, !tbaa !4
  %40 = add nsw i32 %39, 1
  %41 = load i32, ptr %3, align 4, !tbaa !4
  %42 = sext i32 %41 to i64
  %43 = getelementptr inbounds [34 x [8 x i8]], ptr @key_data, i64 0, i64 %42
  %44 = getelementptr inbounds [8 x i8], ptr %43, i64 0, i64 0
  %45 = getelementptr inbounds [20 x i8], ptr %10, i64 0, i64 0
  %46 = call ptr @pt(ptr noundef %44, ptr noundef %45)
  %47 = getelementptr inbounds [8 x i8], ptr %4, i64 0, i64 0
  %48 = getelementptr inbounds [20 x i8], ptr %11, i64 0, i64 0
  %49 = call ptr @pt(ptr noundef %47, ptr noundef %48)
  call void (ptr, i32, ptr, ...) @test_info(ptr noundef @.str.24, i32 noundef 361, ptr noundef @.str.27, i32 noundef %40, ptr noundef %46, ptr noundef %49)
  store i32 0, ptr %2, align 4
  store i32 1, ptr %12, align 4
  br label %68

50:                                               ; preds = %1
  %51 = getelementptr inbounds [8 x i8], ptr %4, i64 0, i64 0
  %52 = getelementptr inbounds [8 x i8], ptr %6, i64 0, i64 0
  %53 = call i32 @test_mem_eq(ptr noundef @.str.24, i32 noundef 364, ptr noundef @.str.28, ptr noundef @.str.29, ptr noundef %51, i64 noundef 8, ptr noundef %52, i64 noundef 8)
  %54 = icmp ne i32 %53, 0
  br i1 %54, label %67, label %55

55:                                               ; preds = %50
  %56 = load i32, ptr %3, align 4, !tbaa !4
  %57 = add nsw i32 %56, 1
  %58 = load i32, ptr %3, align 4, !tbaa !4
  %59 = sext i32 %58 to i64
  %60 = getelementptr inbounds [34 x [8 x i8]], ptr @key_data, i64 0, i64 %59
  %61 = getelementptr inbounds [8 x i8], ptr %60, i64 0, i64 0
  %62 = getelementptr inbounds [20 x i8], ptr %10, i64 0, i64 0
  %63 = call ptr @pt(ptr noundef %61, ptr noundef %62)
  %64 = getelementptr inbounds [8 x i8], ptr %5, i64 0, i64 0
  %65 = getelementptr inbounds [20 x i8], ptr %11, i64 0, i64 0
  %66 = call ptr @pt(ptr noundef %64, ptr noundef %65)
  call void (ptr, i32, ptr, ...) @test_info(ptr noundef @.str.24, i32 noundef 366, ptr noundef @.str.43, i32 noundef %57, ptr noundef %63, ptr noundef %66)
  store i32 0, ptr %2, align 4
  store i32 1, ptr %12, align 4
  br label %68

67:                                               ; preds = %50
  store i32 1, ptr %2, align 4
  store i32 1, ptr %12, align 4
  br label %68

68:                                               ; preds = %67, %55, %38
  call void @llvm.lifetime.end.p0(i64 20, ptr %11) #6
  call void @llvm.lifetime.end.p0(i64 20, ptr %10) #6
  call void @llvm.lifetime.end.p0(i64 128, ptr %9) #6
  call void @llvm.lifetime.end.p0(i64 128, ptr %8) #6
  call void @llvm.lifetime.end.p0(i64 128, ptr %7) #6
  call void @llvm.lifetime.end.p0(i64 8, ptr %6) #6
  call void @llvm.lifetime.end.p0(i64 8, ptr %5) #6
  call void @llvm.lifetime.end.p0(i64 8, ptr %4) #6
  %69 = load i32, ptr %2, align 4
  ret i32 %69
}