; Function Attrs: nounwind uwtable
define internal range(i32 0, 2) i32 @test_des_ede_ecb(i32 noundef %0) #0 {
  %2 = alloca [8 x i8], align 8
  %3 = alloca [8 x i8], align 8
  %4 = alloca [8 x i8], align 8
  %5 = alloca %struct.DES_ks, align 4
  %6 = alloca %struct.DES_ks, align 4
  %7 = alloca %struct.DES_ks, align 4
  %8 = alloca [20 x i8], align 16
  %9 = alloca [20 x i8], align 16
  call void @llvm.lifetime.start.p0(i64 8, ptr nonnull %2) #6
  call void @llvm.lifetime.start.p0(i64 8, ptr nonnull %3) #6
  call void @llvm.lifetime.start.p0(i64 8, ptr nonnull %4) #6
  call void @llvm.lifetime.start.p0(i64 128, ptr nonnull %5) #6
  call void @llvm.lifetime.start.p0(i64 128, ptr nonnull %6) #6
  call void @llvm.lifetime.start.p0(i64 128, ptr nonnull %7) #6
  call void @llvm.lifetime.start.p0(i64 20, ptr nonnull %8) #6
  call void @llvm.lifetime.start.p0(i64 20, ptr nonnull %9) #6
  %10 = sext i32 %0 to i64
  %11 = getelementptr inbounds [34 x [8 x i8]], ptr @key_data, i64 0, i64 %10
  call void @DES_set_key_unchecked(ptr noundef nonnull %11, ptr noundef nonnull %5) #6
  %12 = add nsw i32 %0, 1
  %13 = sext i32 %12 to i64
  %14 = getelementptr inbounds [34 x [8 x i8]], ptr @key_data, i64 0, i64 %13
  call void @DES_set_key_unchecked(ptr noundef nonnull %14, ptr noundef nonnull %6) #6
  %15 = add nsw i32 %0, 2
  %16 = sext i32 %15 to i64
  %17 = getelementptr inbounds [34 x [8 x i8]], ptr @key_data, i64 0, i64 %16
  call void @DES_set_key_unchecked(ptr noundef nonnull %17, ptr noundef nonnull %7) #6
  %18 = getelementptr inbounds [34 x [8 x i8]], ptr @plain_data, i64 0, i64 %10
  %19 = load i64, ptr %18, align 8
  store i64 %19, ptr %2, align 8
  store i64 0, ptr %3, align 8
  store i64 0, ptr %4, align 8
  call void @DES_ecb3_encrypt(ptr noundef nonnull %2, ptr noundef nonnull %3, ptr noundef nonnull %5, ptr noundef nonnull %6, ptr noundef nonnull %5, i32 noundef 1) #6
  call void @DES_ecb3_encrypt(ptr noundef nonnull %3, ptr noundef nonnull %4, ptr noundef nonnull %5, ptr noundef nonnull %6, ptr noundef nonnull %5, i32 noundef 0) #6
  %20 = getelementptr inbounds [33 x [8 x i8]], ptr @cipher_ecb2, i64 0, i64 %10
  %21 = call i32 @test_mem_eq(ptr noundef nonnull @.str.24, i32 noundef 359, ptr noundef nonnull @.str.25, ptr noundef nonnull @.str.42, ptr noundef nonnull %3, i64 noundef 8, ptr noundef nonnull %20, i64 noundef 8) #6
  %.not = icmp eq i32 %21, 0
  br i1 %.not, label %.preheader, label %53

.preheader:                                       ; preds = %1, %.preheader
  %indvars.iv.i = phi i64 [ %indvars.iv.next.i, %.preheader ], [ 0, %1 ]
  %22 = getelementptr inbounds nuw i8, ptr %11, i64 %indvars.iv.i
  %23 = load i8, ptr %22, align 1, !tbaa !4
  %24 = lshr i8 %23, 4
  %25 = zext nneg i8 %24 to i64
  %26 = getelementptr inbounds nuw i8, ptr @.str.31, i64 %25
  %27 = load i8, ptr %26, align 1, !tbaa !4
  %28 = shl nuw nsw i64 %indvars.iv.i, 1
  %29 = getelementptr inbounds nuw i8, ptr %8, i64 %28
  store i8 %27, ptr %29, align 2, !tbaa !4
  %30 = and i8 %23, 15
  %31 = zext nneg i8 %30 to i64
  %32 = getelementptr inbounds nuw i8, ptr @.str.31, i64 %31
  %33 = load i8, ptr %32, align 1, !tbaa !4
  %34 = or disjoint i64 %28, 1
  %35 = getelementptr inbounds nuw i8, ptr %8, i64 %34
  store i8 %33, ptr %35, align 1, !tbaa !4
  %indvars.iv.next.i = add nuw nsw i64 %indvars.iv.i, 1
  %exitcond.not.i = icmp eq i64 %indvars.iv.next.i, 8
  br i1 %exitcond.not.i, label %pt.exit, label %.preheader, !llvm.loop !7

pt.exit:                                          ; preds = %.preheader
  %36 = getelementptr inbounds nuw i8, ptr %8, i64 16
  store i8 0, ptr %36, align 16, !tbaa !4
  br label %37

37:                                               ; preds = %37, %pt.exit
  %indvars.iv.i11 = phi i64 [ 0, %pt.exit ], [ %indvars.iv.next.i12, %37 ]
  %38 = getelementptr inbounds nuw i8, ptr %2, i64 %indvars.iv.i11
  %39 = load i8, ptr %38, align 1, !tbaa !4
  %40 = lshr i8 %39, 4
  %41 = zext nneg i8 %40 to i64
  %42 = getelementptr inbounds nuw i8, ptr @.str.31, i64 %41
  %43 = load i8, ptr %42, align 1, !tbaa !4
  %44 = shl nuw nsw i64 %indvars.iv.i11, 1
  %45 = getelementptr inbounds nuw i8, ptr %9, i64 %44
  store i8 %43, ptr %45, align 2, !tbaa !4
  %46 = and i8 %39, 15
  %47 = zext nneg i8 %46 to i64
  %48 = getelementptr inbounds nuw i8, ptr @.str.31, i64 %47
  %49 = load i8, ptr %48, align 1, !tbaa !4
  %50 = or disjoint i64 %44, 1
  %51 = getelementptr inbounds nuw i8, ptr %9, i64 %50
  store i8 %49, ptr %51, align 1, !tbaa !4
  %indvars.iv.next.i12 = add nuw nsw i64 %indvars.iv.i11, 1
  %exitcond.not.i13 = icmp eq i64 %indvars.iv.next.i12, 8
  br i1 %exitcond.not.i13, label %pt.exit14, label %37, !llvm.loop !7

pt.exit14:                                        ; preds = %37
  %52 = getelementptr inbounds nuw i8, ptr %9, i64 16
  store i8 0, ptr %52, align 16, !tbaa !4
  call void (ptr, i32, ptr, ...) @test_info(ptr noundef nonnull @.str.24, i32 noundef 361, ptr noundef nonnull @.str.27, i32 noundef %12, ptr noundef nonnull %8, ptr noundef nonnull %9) #6
  br label %86

53:                                               ; preds = %1
  %54 = call i32 @test_mem_eq(ptr noundef nonnull @.str.24, i32 noundef 364, ptr noundef nonnull @.str.28, ptr noundef nonnull @.str.29, ptr noundef nonnull %2, i64 noundef 8, ptr noundef nonnull %4, i64 noundef 8) #6
  %.not10 = icmp eq i32 %54, 0
  br i1 %.not10, label %.preheader23, label %86

.preheader23:                                     ; preds = %53, %.preheader23
  %indvars.iv.i15 = phi i64 [ %indvars.iv.next.i16, %.preheader23 ], [ 0, %53 ]
  %55 = getelementptr inbounds nuw i8, ptr %11, i64 %indvars.iv.i15
  %56 = load i8, ptr %55, align 1, !tbaa !4
  %57 = lshr i8 %56, 4
  %58 = zext nneg i8 %57 to i64
  %59 = getelementptr inbounds nuw i8, ptr @.str.31, i64 %58
  %60 = load i8, ptr %59, align 1, !tbaa !4
  %61 = shl nuw nsw i64 %indvars.iv.i15, 1
  %62 = getelementptr inbounds nuw i8, ptr %8, i64 %61
  store i8 %60, ptr %62, align 2, !tbaa !4
  %63 = and i8 %56, 15
  %64 = zext nneg i8 %63 to i64
  %65 = getelementptr inbounds nuw i8, ptr @.str.31, i64 %64
  %66 = load i8, ptr %65, align 1, !tbaa !4
  %67 = or disjoint i64 %61, 1
  %68 = getelementptr inbounds nuw i8, ptr %8, i64 %67
  store i8 %66, ptr %68, align 1, !tbaa !4
  %indvars.iv.next.i16 = add nuw nsw i64 %indvars.iv.i15, 1
  %exitcond.not.i17 = icmp eq i64 %indvars.iv.next.i16, 8
  br i1 %exitcond.not.i17, label %pt.exit18, label %.preheader23, !llvm.loop !7

pt.exit18:                                        ; preds = %.preheader23
  %69 = getelementptr inbounds nuw i8, ptr %8, i64 16
  store i8 0, ptr %69, align 16, !tbaa !4
  br label %70

70:                                               ; preds = %70, %pt.exit18
  %indvars.iv.i19 = phi i64 [ 0, %pt.exit18 ], [ %indvars.iv.next.i20, %70 ]
  %71 = getelementptr inbounds nuw i8, ptr %3, i64 %indvars.iv.i19
  %72 = load i8, ptr %71, align 1, !tbaa !4
  %73 = lshr i8 %72, 4
  %74 = zext nneg i8 %73 to i64
  %75 = getelementptr inbounds nuw i8, ptr @.str.31, i64 %74
  %76 = load i8, ptr %75, align 1, !tbaa !4
  %77 = shl nuw nsw i64 %indvars.iv.i19, 1
  %78 = getelementptr inbounds nuw i8, ptr %9, i64 %77
  store i8 %76, ptr %78, align 2, !tbaa !4
  %79 = and i8 %72, 15
  %80 = zext nneg i8 %79 to i64
  %81 = getelementptr inbounds nuw i8, ptr @.str.31, i64 %80
  %82 = load i8, ptr %81, align 1, !tbaa !4
  %83 = or disjoint i64 %77, 1
  %84 = getelementptr inbounds nuw i8, ptr %9, i64 %83
  store i8 %82, ptr %84, align 1, !tbaa !4
  %indvars.iv.next.i20 = add nuw nsw i64 %indvars.iv.i19, 1
  %exitcond.not.i21 = icmp eq i64 %indvars.iv.next.i20, 8
  br i1 %exitcond.not.i21, label %pt.exit22, label %70, !llvm.loop !7

pt.exit22:                                        ; preds = %70
  %85 = getelementptr inbounds nuw i8, ptr %9, i64 16
  store i8 0, ptr %85, align 16, !tbaa !4
  call void (ptr, i32, ptr, ...) @test_info(ptr noundef nonnull @.str.24, i32 noundef 366, ptr noundef nonnull @.str.43, i32 noundef %12, ptr noundef nonnull %8, ptr noundef nonnull %9) #6
  br label %86

86:                                               ; preds = %53, %pt.exit22, %pt.exit14
  %.0 = phi i32 [ 0, %pt.exit22 ], [ 0, %pt.exit14 ], [ 1, %53 ]
  call void @llvm.lifetime.end.p0(i64 20, ptr nonnull %9) #6
  call void @llvm.lifetime.end.p0(i64 20, ptr nonnull %8) #6
  call void @llvm.lifetime.end.p0(i64 128, ptr nonnull %7) #6
  call void @llvm.lifetime.end.p0(i64 128, ptr nonnull %6) #6
  call void @llvm.lifetime.end.p0(i64 128, ptr nonnull %5) #6
  call void @llvm.lifetime.end.p0(i64 8, ptr nonnull %4) #6
  call void @llvm.lifetime.end.p0(i64 8, ptr nonnull %3) #6
  call void @llvm.lifetime.end.p0(i64 8, ptr nonnull %2) #6
  ret i32 %.0
}